target datalayout = "e-m:e-p270:32:32-p271:32:32-p272:64:64-i64:64-i128:128-f80:128-n8:16:32:64-S128"
target triple = "x86_64-pc-linux-gnu"

%struct.ssl_st = type { i32, i16, i16, ptr, ptr, ptr, ptr, ptr, i32, i32, ptr, ptr, i32, i32, ptr, ptr, ptr, ptr, ptr, ptr, ptr, ptr, i32, i32, [32 x i8], ptr, ptr, ptr, ptr, ptr, ptr, ptr, i64, %struct.crypto_ex_data_st, ptr, i32, i32, i32, i32, i16, ptr, i32, i64, ptr, ptr, ptr, ptr, ptr, ptr, i32, i32, ptr, ptr, i8, i8, i32 }
%struct.crypto_ex_data_st = type { ptr }
%struct.cert_st = type { ptr, ptr, ptr, ptr, i32, i32, ptr, ptr, ptr, i64, ptr, i64, ptr, ptr, ptr }
%struct.ssl_private_key_method_st = type { ptr, ptr, ptr, ptr, ptr, ptr }

; Function Attrs: nounwind uwtable
define hidden i32 @ssl_private_key_decrypt_complete(ptr noundef %0, ptr noundef %1, ptr noundef %2, i64 noundef %3) #0 {
  %5 = alloca ptr, align 8
  %6 = alloca ptr, align 8
  %7 = alloca ptr, align 8
  %8 = alloca i64, align 8
  store ptr %0, ptr %5, align 8, !tbaa !6
  store ptr %1, ptr %6, align 8, !tbaa !53
  store ptr %2, ptr %7, align 8, !tbaa !71
  store i64 %3, ptr %8, align 8, !tbaa !54
  %9 = load ptr, ptr %5, align 8, !tbaa !6
  %10 = getelementptr inbounds nuw %struct.ssl_st, ptr %9, i32 0, i32 21
  %11 = load ptr, ptr %10, align 8, !tbaa !13
  %12 = getelementptr inbounds nuw %struct.cert_st, ptr %11, i32 0, i32 3
  %13 = load ptr, ptr %12, align 8, !tbaa !64
  %14 = getelementptr inbounds nuw %struct.ssl_private_key_method_st, ptr %13, i32 0, i32 5
  %15 = load ptr, ptr %14, align 8, !tbaa !80
  %16 = load ptr, ptr %5, align 8, !tbaa !6
  %17 = load ptr, ptr %6, align 8, !tbaa !53
  %18 = load ptr, ptr %7, align 8, !tbaa !71
  %19 = load i64, ptr %8, align 8, !tbaa !54
  %20 = call i32 %15(ptr noundef %16, ptr noundef %17, ptr noundef %18, i64 noundef %19)
  ret i32 %20
}