; Function Attrs: nounwind uwtable
define hidden i32 @ssl_private_key_decrypt_complete(ptr noundef %0, ptr noundef %1, ptr noundef %2, i64 noundef %3) local_unnamed_addr #0 {
  %5 = getelementptr inbounds nuw i8, ptr %0, i64 136
  %6 = load ptr, ptr %5, align 8, !tbaa !6
  %7 = getelementptr inbounds nuw i8, ptr %6, i64 24
  %8 = load ptr, ptr %7, align 8, !tbaa !53
  %9 = getelementptr inbounds nuw i8, ptr %8, i64 40
  %10 = load ptr, ptr %9, align 8, !tbaa !63
  %11 = tail call i32 %10(ptr noundef %0, ptr noundef %1, ptr noundef %2, i64 noundef %3) #6
  ret i32 %11
}